; Function Attrs: mustprogress nounwind uwtable
define dso_local void @_ZN12SimpleThreadD2Ev(ptr noundef nonnull readonly align 8 captures(none) dereferenceable(8) %0) unnamed_addr #5 align 2 personality ptr @__gxx_personality_v0 {
  %2 = load ptr, ptr %0, align 8, !tbaa !14
  %.not = icmp eq ptr %2, null
  br i1 %.not, label %9, label %3

3:                                                ; preds = %1
  %.sroa.0.0.copyload.i.i = load i64, ptr %2, align 8, !tbaa !25
  %.not1.i = icmp eq i64 %.sroa.0.0.copyload.i.i, 0
  br i1 %.not1.i, label %_ZN12SimpleThread9ThreadRefD2Ev.exit, label %4

4:                                                ; preds = %3
  invoke void @_ZNSt6thread4joinEv(ptr noundef nonnull align 8 dereferenceable(8) %2)
          to label %_ZN12SimpleThread4joinEv.exit unwind label %10

_ZN12SimpleThread4joinEv.exit:                    ; preds = %4
  %.pr = load ptr, ptr %0, align 8, !tbaa !14
  %5 = icmp eq ptr %.pr, null
  br i1 %5, label %9, label %6

6:                                                ; preds = %_ZN12SimpleThread4joinEv.exit
  %.sroa.0.0.copyload.i.i.i.pr = load i64, ptr %.pr, align 8, !tbaa !25
  %.not.i.i = icmp eq i64 %.sroa.0.0.copyload.i.i.i.pr, 0
  br i1 %.not.i.i, label %_ZN12SimpleThread9ThreadRefD2Ev.exit, label %7

7:                                                ; preds = %6
  tail call void @_ZSt9terminatev() #12
  unreachable

_ZN12SimpleThread9ThreadRefD2Ev.exit:             ; preds = %3, %6
  %8 = phi ptr [ %.pr, %6 ], [ %2, %3 ]
  tail call void @_ZdlPvm(ptr noundef nonnull %8, i64 noundef 24) #13
  br label %9

9:                                                ; preds = %_ZN12SimpleThread4joinEv.exit, %_ZN12SimpleThread9ThreadRefD2Ev.exit, %1
  ret void

10:                                               ; preds = %4
  %11 = landingpad { ptr, i32 }
          catch ptr null
  %12 = extractvalue { ptr, i32 } %11, 0
  tail call void @__clang_call_terminate(ptr %12) #12
  unreachable
}